; Function Attrs: mustprogress uwtable
define void @ulocbld_clearExtensions_77(ptr noundef %0) local_unnamed_addr #1 {
  %2 = icmp eq ptr %0, null
  br i1 %2, label %5, label %3

3:                                                ; preds = %1
  %4 = tail call noundef nonnull align 8 dereferenceable(48) ptr @_ZN6icu_7713LocaleBuilder15clearExtensionsEv(ptr noundef nonnull align 8 dereferenceable(48) %0)
  br label %5

5:                                                ; preds = %1, %3
  ret void
}